target datalayout = "e-m:e-p270:32:32-p271:32:32-p272:64:64-i64:64-i128:128-f80:128-n8:16:32:64-S128"
target triple = "x86_64-unknown-linux-gnu"

%"struct.fpa_decl_plugin::mpf_hash_proc" = type { ptr }
%"struct.fpa_decl_plugin::mpf_eq_proc" = type { ptr }
%class.fpa_decl_plugin = type { %class.decl_plugin.base, %class.mpf_manager, %class.id_gen, %class._scoped_numeral_vector, %class.chashtable, ptr, ptr, i32, i32, ptr }
%class.decl_plugin.base = type <{ ptr, ptr, i32 }>
%class.mpf_manager = type { %class.mpq_manager, ptr, %"class.mpf_manager::powers2" }
%class.mpq_manager = type { %class.mpz_manager, %class.mpz, %class.mpz, %class.mpz, %class.mpz, %class.mpq, %class.mpq }
%class.mpz_manager = type { %class.small_object_allocator, %"class.std::recursive_mutex", %class.mpn_manager, i32, %class.mpz, %class.mpz }
%class.small_object_allocator = type { [32 x ptr], [32 x ptr], i64 }
%"class.std::recursive_mutex" = type { %"class.std::__recursive_mutex_base" }
%"class.std::__recursive_mutex_base" = type { %union.pthread_mutex_t }
%union.pthread_mutex_t = type { %struct.__pthread_mutex_s }
%struct.__pthread_mutex_s = type { i32, i32, i32, i32, i32, i16, i16, %struct.__pthread_internal_list }
%struct.__pthread_internal_list = type { ptr, ptr }
%class.mpn_manager = type { i8 }
%class.mpz = type { i32, i8, ptr }
%class.mpq = type { %class.mpz, %class.mpz }
%"class.mpf_manager::powers2" = type { ptr, %class.u_map, %class.u_map, %class.u_map, %class.u_map }
%class.u_map = type { %class.map }
%class.map = type { %class.table2map }
%class.table2map = type { %class.core_hashtable }
%class.core_hashtable = type <{ ptr, i32, i32, i32, [4 x i8] }>
%class.id_gen = type { i32, %class.svector }
%class.svector = type { %class.vector }
%class.vector = type { ptr }
%class._scoped_numeral_vector = type { %class.svector.0, ptr }
%class.svector.0 = type { %class.vector.1 }
%class.vector.1 = type { ptr }
%class.chashtable = type { %"struct.fpa_decl_plugin::mpf_hash_proc", %"struct.fpa_decl_plugin::mpf_eq_proc", ptr, i32, i32, i32, i32, i32, i32, i32, ptr, ptr, ptr }
%class.decl_plugin = type <{ ptr, ptr, i32, [4 x i8] }>
%"struct.chashtable<unsigned int, fpa_decl_plugin::mpf_hash_proc, fpa_decl_plugin::mpf_eq_proc>::cell" = type <{ ptr, i32, [4 x i8] }>

@_ZTV11decl_plugin = external unnamed_addr constant { [23 x ptr] }, align 8

; Function Attrs: mustprogress nounwind uwtable
define linkonce_odr hidden void @_ZN10chashtableIjN15fpa_decl_plugin13mpf_hash_procENS0_11mpf_eq_procEE4cellC2Ev(ptr noundef nonnull align 8 dereferenceable(12) %this) unnamed_addr #5 comdat align 2 {
entry:
  %this.addr = alloca ptr, align 8
  store ptr %this, ptr %this.addr, align 8
  %this1 = load ptr, ptr %this.addr, align 8
  %m_next = getelementptr inbounds %"struct.chashtable<unsigned int, fpa_decl_plugin::mpf_hash_proc, fpa_decl_plugin::mpf_eq_proc>::cell", ptr %this1, i32 0, i32 0
  store ptr inttoptr (i64 1 to ptr), ptr %m_next, align 8
  ret void
}

; Function Attrs: mustprogress uwtable
define linkonce_odr hidden noalias noundef ptr @_Z10alloc_vectIN10chashtableIjN15fpa_decl_plugin13mpf_hash_procENS1_11mpf_eq_procEE4cellEEPT_j(i32 noundef %sz) #4 comdat {
entry:
  %sz.addr = alloca i32, align 4
  %r = alloca ptr, align 8
  %curr = alloca ptr, align 8
  %i = alloca i32, align 4
  store i32 %sz, ptr %sz.addr, align 4
  %0 = load i32, ptr %sz.addr, align 4
  %conv = zext i32 %0 to i64
  %mul = mul i64 16, %conv
  %call = call noalias noundef ptr @_ZN6memory8allocateEm(i64 noundef %mul)
  store ptr %call, ptr %r, align 8
  %1 = load ptr, ptr %r, align 8
  store ptr %1, ptr %curr, align 8
  store i32 0, ptr %i, align 4
  br label %for.cond

for.cond:                                         ; preds = %for.inc, %entry
  %2 = load i32, ptr %i, align 4
  %3 = load i32, ptr %sz.addr, align 4
  %cmp = icmp ult i32 %2, %3
  br i1 %cmp, label %for.body, label %for.end

for.body:                                         ; preds = %for.cond
  %4 = load ptr, ptr %curr, align 8
  call void @_ZN10chashtableIjN15fpa_decl_plugin13mpf_hash_procENS0_11mpf_eq_procEE4cellC2Ev(ptr noundef nonnull align 8 dereferenceable(12) %4)
  br label %for.inc

for.inc:                                          ; preds = %for.body
  %5 = load i32, ptr %i, align 4
  %inc = add i32 %5, 1
  store i32 %inc, ptr %i, align 4
  %6 = load ptr, ptr %curr, align 8
  %incdec.ptr = getelementptr inbounds %"struct.chashtable<unsigned int, fpa_decl_plugin::mpf_hash_proc, fpa_decl_plugin::mpf_eq_proc>::cell", ptr %6, i32 1
  store ptr %incdec.ptr, ptr %curr, align 8
  br label %for.cond, !llvm.loop !17

for.end:                                          ; preds = %for.cond
  %7 = load ptr, ptr %r, align 8
  ret ptr %7
}

; Function Attrs: mustprogress uwtable
define linkonce_odr hidden noundef ptr @_ZN10chashtableIjN15fpa_decl_plugin13mpf_hash_procENS0_11mpf_eq_procEE11alloc_tableEj(i32 noundef %sz) #4 comdat align 2 {
entry:
  %sz.addr = alloca i32, align 4
  store i32 %sz, ptr %sz.addr, align 4
  %0 = load i32, ptr %sz.addr, align 4
  %call = call noalias noundef ptr @_Z10alloc_vectIN10chashtableIjN15fpa_decl_plugin13mpf_hash_procENS1_11mpf_eq_procEE4cellEEPT_j(i32 noundef %0)
  ret ptr %call
}

; Function Attrs: mustprogress nounwind uwtable
define linkonce_odr hidden void @_ZN6vectorI3mpfLb0EjEC2Ev(ptr noundef nonnull align 8 dereferenceable(8) %this) unnamed_addr #5 comdat align 2 {
entry:
  %this.addr = alloca ptr, align 8
  store ptr %this, ptr %this.addr, align 8
  %this1 = load ptr, ptr %this.addr, align 8
  %m_data = getelementptr inbounds %class.vector.1, ptr %this1, i32 0, i32 0
  store ptr null, ptr %m_data, align 8
  ret void
}

; Function Attrs: mustprogress nounwind uwtable
define linkonce_odr hidden void @_ZN6vectorIjLb0EjEC2Ev(ptr noundef nonnull align 8 dereferenceable(8) %this) unnamed_addr #5 comdat align 2 {
entry:
  %this.addr = alloca ptr, align 8
  store ptr %this, ptr %this.addr, align 8
  %this1 = load ptr, ptr %this.addr, align 8
  %m_data = getelementptr inbounds %class.vector, ptr %this1, i32 0, i32 0
  store ptr null, ptr %m_data, align 8
  ret void
}

; Function Attrs: mustprogress uwtable
define linkonce_odr hidden void @_ZN10chashtableIjN15fpa_decl_plugin13mpf_hash_procENS0_11mpf_eq_procEE4initEjj(ptr noundef nonnull align 8 dereferenceable(80) %this, i32 noundef %slots, i32 noundef %cellar) #4 comdat align 2 {
entry:
  %this.addr = alloca ptr, align 8
  %slots.addr = alloca i32, align 4
  %cellar.addr = alloca i32, align 4
  store ptr %this, ptr %this.addr, align 8
  store i32 %slots, ptr %slots.addr, align 4
  store i32 %cellar, ptr %cellar.addr, align 4
  %this1 = load ptr, ptr %this.addr, align 8
  %0 = load i32, ptr %slots.addr, align 4
  %1 = load i32, ptr %cellar.addr, align 4
  %add = add i32 %0, %1
  %m_capacity = getelementptr inbounds %class.chashtable, ptr %this1, i32 0, i32 3
  store i32 %add, ptr %m_capacity, align 8
  %m_capacity2 = getelementptr inbounds %class.chashtable, ptr %this1, i32 0, i32 3
  %2 = load i32, ptr %m_capacity2, align 8
  %call = call noundef ptr @_ZN10chashtableIjN15fpa_decl_plugin13mpf_hash_procENS0_11mpf_eq_procEE11alloc_tableEj(i32 noundef %2)
  %m_table = getelementptr inbounds %class.chashtable, ptr %this1, i32 0, i32 2
  store ptr %call, ptr %m_table, align 8
  %3 = load i32, ptr %slots.addr, align 4
  %m_slots = getelementptr inbounds %class.chashtable, ptr %this1, i32 0, i32 6
  store i32 %3, ptr %m_slots, align 4
  %m_used_slots = getelementptr inbounds %class.chashtable, ptr %this1, i32 0, i32 7
  store i32 0, ptr %m_used_slots, align 8
  %m_size = getelementptr inbounds %class.chashtable, ptr %this1, i32 0, i32 8
  store i32 0, ptr %m_size, align 4
  %m_table3 = getelementptr inbounds %class.chashtable, ptr %this1, i32 0, i32 2
  %4 = load ptr, ptr %m_table3, align 8
  %5 = load i32, ptr %slots.addr, align 4
  %idx.ext = zext i32 %5 to i64
  %add.ptr = getelementptr inbounds %"struct.chashtable<unsigned int, fpa_decl_plugin::mpf_hash_proc, fpa_decl_plugin::mpf_eq_proc>::cell", ptr %4, i64 %idx.ext
  %m_next_cell = getelementptr inbounds %class.chashtable, ptr %this1, i32 0, i32 10
  store ptr %add.ptr, ptr %m_next_cell, align 8
  %m_free_cell = getelementptr inbounds %class.chashtable, ptr %this1, i32 0, i32 11
  store ptr null, ptr %m_free_cell, align 8
  %m_tofree_cell = getelementptr inbounds %class.chashtable, ptr %this1, i32 0, i32 12
  store ptr null, ptr %m_tofree_cell, align 8
  ret void
}

; Function Attrs: mustprogress nounwind uwtable
define linkonce_odr hidden void @_ZN7svectorI3mpfjEC2Ev(ptr noundef nonnull align 8 dereferenceable(8) %this) unnamed_addr #5 comdat align 2 {
entry:
  %this.addr = alloca ptr, align 8
  store ptr %this, ptr %this.addr, align 8
  %this1 = load ptr, ptr %this.addr, align 8
  %0 = getelementptr inbounds i8, ptr %this1, i64 0
  call void @llvm.memset.p0.i64(ptr align 8 %0, i8 0, i64 8, i1 false)
  call void @_ZN6vectorI3mpfLb0EjEC2Ev(ptr noundef nonnull align 8 dereferenceable(8) %this1) #3
  ret void
}

; Function Attrs: mustprogress nounwind uwtable
define linkonce_odr hidden void @_ZN7svectorIjjEC2Ev(ptr noundef nonnull align 8 dereferenceable(8) %this) unnamed_addr #5 comdat align 2 {
entry:
  %this.addr = alloca ptr, align 8
  store ptr %this, ptr %this.addr, align 8
  %this1 = load ptr, ptr %this.addr, align 8
  %0 = getelementptr inbounds i8, ptr %this1, i64 0
  call void @llvm.memset.p0.i64(ptr align 8 %0, i8 0, i64 8, i1 false)
  call void @_ZN6vectorIjLb0EjEC2Ev(ptr noundef nonnull align 8 dereferenceable(8) %this1) #3
  ret void
}

; Function Attrs: mustprogress nounwind uwtable
define linkonce_odr hidden void @_ZN11decl_pluginD2Ev(ptr noundef nonnull align 8 dereferenceable(20) %this) unnamed_addr #5 comdat align 2 {
entry:
  %this.addr = alloca ptr, align 8
  store ptr %this, ptr %this.addr, align 8
  ret void
}

; Function Attrs: mustprogress nounwind uwtable
define linkonce_odr hidden void @_ZN11mpf_managerD2Ev(ptr noundef nonnull align 8 dereferenceable(840) %this) unnamed_addr #5 comdat align 2 {
entry:
  %this.addr = alloca ptr, align 8
  store ptr %this, ptr %this.addr, align 8
  %this1 = load ptr, ptr %this.addr, align 8
  %m_powers2 = getelementptr inbounds %class.mpf_manager, ptr %this1, i32 0, i32 2
  call void @_ZN11mpf_manager7powers2D2Ev(ptr noundef nonnull align 8 dereferenceable(104) %m_powers2) #3
  %m_mpq_manager = getelementptr inbounds %class.mpf_manager, ptr %this1, i32 0, i32 0
  call void @_ZN11mpq_managerILb0EED1Ev(ptr noundef nonnull align 8 dereferenceable(728) %m_mpq_manager) #3
  ret void
}

; Function Attrs: mustprogress uwtable
define linkonce_odr hidden void @_ZN10chashtableIjN15fpa_decl_plugin13mpf_hash_procENS0_11mpf_eq_procEEC2ERKS1_RKS2_jj(ptr noundef nonnull align 8 dereferenceable(80) %this, ptr noundef nonnull align 8 dereferenceable(8) %h, ptr noundef nonnull align 8 dereferenceable(8) %e, i32 noundef %init_slots, i32 noundef %init_cellar) unnamed_addr #4 comdat align 2 {
entry:
  %this.addr = alloca ptr, align 8
  %h.addr = alloca ptr, align 8
  %e.addr = alloca ptr, align 8
  %init_slots.addr = alloca i32, align 4
  %init_cellar.addr = alloca i32, align 4
  store ptr %this, ptr %this.addr, align 8
  store ptr %h, ptr %h.addr, align 8
  store ptr %e, ptr %e.addr, align 8
  store i32 %init_slots, ptr %init_slots.addr, align 4
  store i32 %init_cellar, ptr %init_cellar.addr, align 4
  %this1 = load ptr, ptr %this.addr, align 8
  %0 = load ptr, ptr %h.addr, align 8
  call void @llvm.memcpy.p0.p0.i64(ptr align 8 %this1, ptr align 8 %0, i64 8, i1 false)
  %1 = getelementptr inbounds i8, ptr %this1, i64 8
  %2 = load ptr, ptr %e.addr, align 8
  call void @llvm.memcpy.p0.p0.i64(ptr align 8 %1, ptr align 8 %2, i64 8, i1 false)
  %3 = load i32, ptr %init_slots.addr, align 4
  %m_init_slots = getelementptr inbounds %class.chashtable, ptr %this1, i32 0, i32 4
  store i32 %3, ptr %m_init_slots, align 4
  %4 = load i32, ptr %init_cellar.addr, align 4
  %m_init_cellar = getelementptr inbounds %class.chashtable, ptr %this1, i32 0, i32 5
  store i32 %4, ptr %m_init_cellar, align 8
  %m_init_slots2 = getelementptr inbounds %class.chashtable, ptr %this1, i32 0, i32 4
  %5 = load i32, ptr %m_init_slots2, align 4
  %m_init_cellar3 = getelementptr inbounds %class.chashtable, ptr %this1, i32 0, i32 5
  %6 = load i32, ptr %m_init_cellar3, align 8
  call void @_ZN10chashtableIjN15fpa_decl_plugin13mpf_hash_procENS0_11mpf_eq_procEE4initEjj(ptr noundef nonnull align 8 dereferenceable(80) %this1, i32 noundef %5, i32 noundef %6)
  %m_collisions = getelementptr inbounds %class.chashtable, ptr %this1, i32 0, i32 9
  store i32 0, ptr %m_collisions, align 8
  ret void
}

; Function Attrs: mustprogress nounwind uwtable
define linkonce_odr hidden void @_ZN15fpa_decl_plugin11mpf_eq_procC2ERK22_scoped_numeral_vectorI11mpf_managerE(ptr noundef nonnull align 8 dereferenceable(8) %this, ptr noundef nonnull align 8 dereferenceable(16) %values) unnamed_addr #5 comdat align 2 {
entry:
  %this.addr = alloca ptr, align 8
  %values.addr = alloca ptr, align 8
  store ptr %this, ptr %this.addr, align 8
  store ptr %values, ptr %values.addr, align 8
  %this1 = load ptr, ptr %this.addr, align 8
  %m_values = getelementptr inbounds %"struct.fpa_decl_plugin::mpf_eq_proc", ptr %this1, i32 0, i32 0
  %0 = load ptr, ptr %values.addr, align 8
  store ptr %0, ptr %m_values, align 8
  ret void
}

; Function Attrs: mustprogress nounwind uwtable
define linkonce_odr hidden void @_ZN15fpa_decl_plugin13mpf_hash_procC2ERK22_scoped_numeral_vectorI11mpf_managerE(ptr noundef nonnull align 8 dereferenceable(8) %this, ptr noundef nonnull align 8 dereferenceable(16) %values) unnamed_addr #5 comdat align 2 {
entry:
  %this.addr = alloca ptr, align 8
  %values.addr = alloca ptr, align 8
  store ptr %this, ptr %this.addr, align 8
  store ptr %values, ptr %values.addr, align 8
  %this1 = load ptr, ptr %this.addr, align 8
  %m_values = getelementptr inbounds %"struct.fpa_decl_plugin::mpf_hash_proc", ptr %this1, i32 0, i32 0
  %0 = load ptr, ptr %values.addr, align 8
  store ptr %0, ptr %m_values, align 8
  ret void
}

; Function Attrs: mustprogress uwtable
define linkonce_odr hidden void @_ZN22_scoped_numeral_vectorI11mpf_managerEC2ERS0_(ptr noundef nonnull align 8 dereferenceable(16) %this, ptr noundef nonnull align 8 dereferenceable(840) %m) unnamed_addr #4 comdat align 2 {
entry:
  %this.addr = alloca ptr, align 8
  %m.addr = alloca ptr, align 8
  store ptr %this, ptr %this.addr, align 8
  store ptr %m, ptr %m.addr, align 8
  %this1 = load ptr, ptr %this.addr, align 8
  call void @_ZN7svectorI3mpfjEC2Ev(ptr noundef nonnull align 8 dereferenceable(8) %this1)
  %m_manager = getelementptr inbounds %class._scoped_numeral_vector, ptr %this1, i32 0, i32 1
  %0 = load ptr, ptr %m.addr, align 8
  store ptr %0, ptr %m_manager, align 8
  ret void
}

; Function Attrs: mustprogress uwtable
define linkonce_odr hidden void @_ZN6id_genC2Ej(ptr noundef nonnull align 8 dereferenceable(16) %this, i32 noundef %start) unnamed_addr #4 comdat align 2 {
entry:
  %this.addr = alloca ptr, align 8
  %start.addr = alloca i32, align 4
  store ptr %this, ptr %this.addr, align 8
  store i32 %start, ptr %start.addr, align 4
  %this1 = load ptr, ptr %this.addr, align 8
  %m_next_id = getelementptr inbounds %class.id_gen, ptr %this1, i32 0, i32 0
  %0 = load i32, ptr %start.addr, align 4
  store i32 %0, ptr %m_next_id, align 8
  %m_free_ids = getelementptr inbounds %class.id_gen, ptr %this1, i32 0, i32 1
  call void @_ZN7svectorIjjEC2Ev(ptr noundef nonnull align 8 dereferenceable(8) %m_free_ids)
  ret void
}

; Function Attrs: mustprogress nounwind uwtable
define linkonce_odr hidden void @_ZN11decl_pluginC2Ev(ptr noundef nonnull align 8 dereferenceable(20) %this) unnamed_addr #5 comdat align 2 {
entry:
  %this.addr = alloca ptr, align 8
  store ptr %this, ptr %this.addr, align 8
  %this1 = load ptr, ptr %this.addr, align 8
  store ptr getelementptr inbounds ({ [23 x ptr] }, ptr @_ZTV11decl_plugin, i32 0, i32 0, i32 2), ptr %this1, align 8
  %m_manager = getelementptr inbounds %class.decl_plugin, ptr %this1, i32 0, i32 1
  store ptr null, ptr %m_manager, align 8
  %m_family_id = getelementptr inbounds %class.decl_plugin, ptr %this1, i32 0, i32 2
  store i32 -1, ptr %m_family_id, align 8
  ret void
}

; Function Attrs: mustprogress uwtable
define hidden void @_ZN15fpa_decl_pluginC2Ev(ptr noundef nonnull align 8 dereferenceable(1008) %this) unnamed_addr #4 align 2 personality ptr @__gxx_personality_v0 {
entry:
  %this.addr = alloca ptr, align 8
  %exn.slot = alloca ptr, align 8
  %ehselector.slot = alloca i32, align 4
  %ref.tmp = alloca %"struct.fpa_decl_plugin::mpf_hash_proc", align 8
  %ref.tmp10 = alloca %"struct.fpa_decl_plugin::mpf_eq_proc", align 8
  store ptr %this, ptr %this.addr, align 8
  %this1 = load ptr, ptr %this.addr, align 8
  call void @_ZN11decl_pluginC2Ev(ptr noundef nonnull align 8 dereferenceable(20) %this1) #3
  store ptr getelementptr inbounds ({ [23 x ptr] }, ptr @_ZTV15fpa_decl_plugin, i32 0, i32 0, i32 2), ptr %this1, align 8
  %m_fm = getelementptr inbounds %class.fpa_decl_plugin, ptr %this1, i32 0, i32 1
  invoke void @_ZN11mpf_managerC1Ev(ptr noundef nonnull align 8 dereferenceable(840) %m_fm)
          to label %invoke.cont unwind label %lpad

invoke.cont:                                      ; preds = %entry
  %m_id_gen = getelementptr inbounds %class.fpa_decl_plugin, ptr %this1, i32 0, i32 2
  invoke void @_ZN6id_genC2Ej(ptr noundef nonnull align 8 dereferenceable(16) %m_id_gen, i32 noundef 0)
          to label %invoke.cont3 unwind label %lpad2

invoke.cont3:                                     ; preds = %invoke.cont
  %m_values = getelementptr inbounds %class.fpa_decl_plugin, ptr %this1, i32 0, i32 3
  %m_fm4 = getelementptr inbounds %class.fpa_decl_plugin, ptr %this1, i32 0, i32 1
  invoke void @_ZN22_scoped_numeral_vectorI11mpf_managerEC2ERS0_(ptr noundef nonnull align 8 dereferenceable(16) %m_values, ptr noundef nonnull align 8 dereferenceable(840) %m_fm4)
          to label %invoke.cont6 unwind label %lpad5

invoke.cont6:                                     ; preds = %invoke.cont3
  %m_value_table = getelementptr inbounds %class.fpa_decl_plugin, ptr %this1, i32 0, i32 4
  %m_values7 = getelementptr inbounds %class.fpa_decl_plugin, ptr %this1, i32 0, i32 3
  invoke void @_ZN15fpa_decl_plugin13mpf_hash_procC2ERK22_scoped_numeral_vectorI11mpf_managerE(ptr noundef nonnull align 8 dereferenceable(8) %ref.tmp, ptr noundef nonnull align 8 dereferenceable(16) %m_values7)
          to label %invoke.cont9 unwind label %lpad8

invoke.cont9:                                     ; preds = %invoke.cont6
  %m_values11 = getelementptr inbounds %class.fpa_decl_plugin, ptr %this1, i32 0, i32 3
  invoke void @_ZN15fpa_decl_plugin11mpf_eq_procC2ERK22_scoped_numeral_vectorI11mpf_managerE(ptr noundef nonnull align 8 dereferenceable(8) %ref.tmp10, ptr noundef nonnull align 8 dereferenceable(16) %m_values11)
          to label %invoke.cont12 unwind label %lpad8

invoke.cont12:                                    ; preds = %invoke.cont9
  invoke void @_ZN10chashtableIjN15fpa_decl_plugin13mpf_hash_procENS0_11mpf_eq_procEEC2ERKS1_RKS2_jj(ptr noundef nonnull align 8 dereferenceable(80) %m_value_table, ptr noundef nonnull align 8 dereferenceable(8) %ref.tmp, ptr noundef nonnull align 8 dereferenceable(8) %ref.tmp10, i32 noundef 8, i32 noundef 2)
          to label %invoke.cont13 unwind label %lpad8

invoke.cont13:                                    ; preds = %invoke.cont12
  %m_real_sort = getelementptr inbounds %class.fpa_decl_plugin, ptr %this1, i32 0, i32 5
  store ptr null, ptr %m_real_sort, align 8
  %m_int_sort = getelementptr inbounds %class.fpa_decl_plugin, ptr %this1, i32 0, i32 6
  store ptr null, ptr %m_int_sort, align 8
  %m_bv_plugin = getelementptr inbounds %class.fpa_decl_plugin, ptr %this1, i32 0, i32 9
  store ptr null, ptr %m_bv_plugin, align 8
  ret void

lpad:                                             ; preds = %entry
  %0 = landingpad { ptr, i32 }
          cleanup
  %1 = extractvalue { ptr, i32 } %0, 0
  store ptr %1, ptr %exn.slot, align 8
  %2 = extractvalue { ptr, i32 } %0, 1
  store i32 %2, ptr %ehselector.slot, align 4
  br label %ehcleanup15

lpad2:                                            ; preds = %invoke.cont
  %3 = landingpad { ptr, i32 }
          cleanup
  %4 = extractvalue { ptr, i32 } %3, 0
  store ptr %4, ptr %exn.slot, align 8
  %5 = extractvalue { ptr, i32 } %3, 1
  store i32 %5, ptr %ehselector.slot, align 4
  br label %ehcleanup14

lpad5:                                            ; preds = %invoke.cont3
  %6 = landingpad { ptr, i32 }
          cleanup
  %7 = extractvalue { ptr, i32 } %6, 0
  store ptr %7, ptr %exn.slot, align 8
  %8 = extractvalue { ptr, i32 } %6, 1
  store i32 %8, ptr %ehselector.slot, align 4
  br label %ehcleanup

lpad8:                                            ; preds = %invoke.cont12, %invoke.cont9, %invoke.cont6
  %9 = landingpad { ptr, i32 }
          cleanup
  %10 = extractvalue { ptr, i32 } %9, 0
  store ptr %10, ptr %exn.slot, align 8
  %11 = extractvalue { ptr, i32 } %9, 1
  store i32 %11, ptr %ehselector.slot, align 4
  call void @_ZN22_scoped_numeral_vectorI11mpf_managerED2Ev(ptr noundef nonnull align 8 dereferenceable(16) %m_values) #3
  br label %ehcleanup

ehcleanup:                                        ; preds = %lpad8, %lpad5
  call void @_ZN6id_genD2Ev(ptr noundef nonnull align 8 dereferenceable(16) %m_id_gen) #3
  br label %ehcleanup14

ehcleanup14:                                      ; preds = %ehcleanup, %lpad2
  call void @_ZN11mpf_managerD2Ev(ptr noundef nonnull align 8 dereferenceable(840) %m_fm) #3
  br label %ehcleanup15

ehcleanup15:                                      ; preds = %ehcleanup14, %lpad
  call void @_ZN11decl_pluginD2Ev(ptr noundef nonnull align 8 dereferenceable(20) %this1) #3
  br label %eh.resume

eh.resume:                                        ; preds = %ehcleanup15
  %exn = load ptr, ptr %exn.slot, align 8
  %sel = load i32, ptr %ehselector.slot, align 4
  %lpad.val = insertvalue { ptr, i32 } poison, ptr %exn, 0
  %lpad.val16 = insertvalue { ptr, i32 } %lpad.val, i32 %sel, 1
  resume { ptr, i32 } %lpad.val16
}