; Function Attrs: mustprogress uwtable
define hidden void @_ZN15fpa_decl_pluginC2Ev(ptr noundef nonnull align 8 dereferenceable(1008) %this) unnamed_addr #3 align 2 personality ptr @__gxx_personality_v0 {
entry:
  %m_manager.i = getelementptr inbounds i8, ptr %this, i64 8
  store ptr null, ptr %m_manager.i, align 8
  %m_family_id.i = getelementptr inbounds i8, ptr %this, i64 16
  store i32 -1, ptr %m_family_id.i, align 8
  store ptr getelementptr inbounds ({ [23 x ptr] }, ptr @_ZTV15fpa_decl_plugin, i64 0, i32 0, i64 2), ptr %this, align 8
  %m_fm = getelementptr inbounds i8, ptr %this, i64 24
  tail call void @_ZN11mpf_managerC1Ev(ptr noundef nonnull align 8 dereferenceable(840) %m_fm)
  %m_id_gen = getelementptr inbounds i8, ptr %this, i64 864
  store i32 0, ptr %m_id_gen, align 8
  %m_free_ids.i = getelementptr inbounds i8, ptr %this, i64 872
  %m_values = getelementptr inbounds i8, ptr %this, i64 880
  %m_manager.i4 = getelementptr inbounds i8, ptr %this, i64 888
  tail call void @llvm.memset.p0.i64(ptr noundef nonnull align 8 dereferenceable(16) %m_free_ids.i, i8 0, i64 16, i1 false)
  store ptr %m_fm, ptr %m_manager.i4, align 8
  %m_value_table = getelementptr inbounds i8, ptr %this, i64 896
  %0 = ptrtoint ptr %m_values to i64
  store i64 %0, ptr %m_value_table, align 8
  %1 = getelementptr inbounds i8, ptr %this, i64 904
  store i64 %0, ptr %1, align 8
  %m_init_slots.i = getelementptr inbounds i8, ptr %this, i64 924
  store i32 8, ptr %m_init_slots.i, align 4
  %m_init_cellar.i = getelementptr inbounds i8, ptr %this, i64 928
  store i32 2, ptr %m_init_cellar.i, align 8
  %m_capacity.i.i = getelementptr inbounds i8, ptr %this, i64 920
  store i32 10, ptr %m_capacity.i.i, align 8
  %call.i.i.i.i5 = invoke noalias noundef ptr @_ZN6memory8allocateEm(i64 noundef 160)
          to label %for.body.i.i.i.i unwind label %lpad8

for.body.i.i.i.i:                                 ; preds = %entry, %for.body.i.i.i.i
  %i.07.i.i.i.i = phi i32 [ %inc.i.i.i.i, %for.body.i.i.i.i ], [ 0, %entry ]
  %curr.06.i.i.i.i = phi ptr [ %incdec.ptr.i.i.i.i, %for.body.i.i.i.i ], [ %call.i.i.i.i5, %entry ]
  store ptr inttoptr (i64 1 to ptr), ptr %curr.06.i.i.i.i, align 8
  %inc.i.i.i.i = add nuw nsw i32 %i.07.i.i.i.i, 1
  %incdec.ptr.i.i.i.i = getelementptr inbounds i8, ptr %curr.06.i.i.i.i, i64 16
  %exitcond.not.i.i.i.i = icmp eq i32 %inc.i.i.i.i, 10
  br i1 %exitcond.not.i.i.i.i, label %invoke.cont13, label %for.body.i.i.i.i, !llvm.loop !4

invoke.cont13:                                    ; preds = %for.body.i.i.i.i
  %m_table.i.i = getelementptr inbounds i8, ptr %this, i64 912
  store ptr %call.i.i.i.i5, ptr %m_table.i.i, align 8
  %m_slots.i.i = getelementptr inbounds i8, ptr %this, i64 932
  %add.ptr.i.i = getelementptr inbounds i8, ptr %call.i.i.i.i5, i64 128
  %m_next_cell.i.i = getelementptr inbounds i8, ptr %this, i64 952
  store ptr %add.ptr.i.i, ptr %m_next_cell.i.i, align 8
  %m_free_cell.i.i = getelementptr inbounds i8, ptr %this, i64 960
  store <4 x i32> <i32 8, i32 0, i32 0, i32 0>, ptr %m_slots.i.i, align 4
  %m_bv_plugin = getelementptr inbounds i8, ptr %this, i64 1000
  store ptr null, ptr %m_bv_plugin, align 8
  tail call void @llvm.memset.p0.i64(ptr noundef nonnull align 8 dereferenceable(32) %m_free_cell.i.i, i8 0, i64 32, i1 false)
  ret void

lpad8:                                            ; preds = %entry
  %2 = landingpad { ptr, i32 }
          cleanup
  tail call void @_ZN22_scoped_numeral_vectorI11mpf_managerED2Ev(ptr noundef nonnull align 8 dereferenceable(16) %m_values) #18
  tail call void @_ZN6id_genD2Ev(ptr noundef nonnull align 8 dereferenceable(16) %m_id_gen) #18
  %m_powers2.i = getelementptr inbounds i8, ptr %this, i64 760
  tail call void @_ZN11mpf_manager7powers2D2Ev(ptr noundef nonnull align 8 dereferenceable(104) %m_powers2.i) #18
  tail call void @_ZN11mpq_managerILb0EED1Ev(ptr noundef nonnull align 8 dereferenceable(728) %m_fm) #18
  resume { ptr, i32 } %2
}